; ModuleID = 'source-C-CXX/14/1419.c'
source_filename = "source-C-CXX/14/1419.c"
target datalayout = "e-m:e-p270:32:32-p271:32:32-p272:64:64-i64:64-f80:128-n8:16:32:64-S128"
target triple = "x86_64-pc-linux-gnu"

@.str = private unnamed_addr constant [3 x i8] c"%d\00", align 1

; Function Attrs: nofree nounwind sspstrong uwtable
define dso_local i32 @main() local_unnamed_addr #0 {
  %1 = alloca i32, align 4
  %2 = alloca [1000 x [1000 x i32]], align 16
  %3 = alloca [1000 x i32], align 16
  %4 = alloca [1000 x i32], align 16
  %5 = bitcast i32* %1 to i8*
  call void @llvm.lifetime.start.p0i8(i64 4, i8* nonnull %5) #3
  %6 = bitcast [1000 x [1000 x i32]]* %2 to i8*
  call void @llvm.lifetime.start.p0i8(i64 4000000, i8* nonnull %6) #3
  %7 = bitcast [1000 x i32]* %3 to i8*
  call void @llvm.lifetime.start.p0i8(i64 4000, i8* nonnull %7) #3
  %8 = bitcast [1000 x i32]* %4 to i8*
  call void @llvm.lifetime.start.p0i8(i64 4000, i8* nonnull %8) #3
  %9 = call i32 (i8*, ...) @__isoc99_scanf(i8* getelementptr inbounds ([3 x i8], [3 x i8]* @.str, i64 0, i64 0), i32* nonnull %1)
  %10 = load i32, i32* %1, align 4, !tbaa !5
  %11 = icmp sgt i32 %10, 0
  br i1 %11, label %12, label %44

12:                                               ; preds = %0, %38
  %13 = phi i32 [ %39, %38 ], [ %10, %0 ]
  %14 = phi i64 [ %42, %38 ], [ 0, %0 ]
  %15 = phi i32 [ %40, %38 ], [ 0, %0 ]
  %16 = icmp sgt i32 %13, 0
  br i1 %16, label %17, label %38

17:                                               ; preds = %12
  %18 = trunc i64 %14 to i32
  br label %19

19:                                               ; preds = %17, %32
  %20 = phi i64 [ 0, %17 ], [ %34, %32 ]
  %21 = phi i32 [ %15, %17 ], [ %33, %32 ]
  %22 = getelementptr inbounds [1000 x [1000 x i32]], [1000 x [1000 x i32]]* %2, i64 0, i64 %14, i64 %20
  %23 = call i32 (i8*, ...) @__isoc99_scanf(i8* getelementptr inbounds ([3 x i8], [3 x i8]* @.str, i64 0, i64 0), i32* nonnull %22)
  %24 = load i32, i32* %22, align 4, !tbaa !5
  %25 = icmp eq i32 %24, 0
  br i1 %25, label %26, label %32

26:                                               ; preds = %19
  %27 = sext i32 %21 to i64
  %28 = getelementptr inbounds [1000 x i32], [1000 x i32]* %3, i64 0, i64 %27
  store i32 %18, i32* %28, align 4, !tbaa !5
  %29 = getelementptr inbounds [1000 x i32], [1000 x i32]* %4, i64 0, i64 %27
  %30 = trunc i64 %20 to i32
  store i32 %30, i32* %29, align 4, !tbaa !5
  %31 = add nsw i32 %21, 1
  br label %32

32:                                               ; preds = %19, %26
  %33 = phi i32 [ %31, %26 ], [ %21, %19 ]
  %34 = add nuw nsw i64 %20, 1
  %35 = load i32, i32* %1, align 4, !tbaa !5
  %36 = sext i32 %35 to i64
  %37 = icmp slt i64 %34, %36
  br i1 %37, label %19, label %38, !llvm.loop !9

38:                                               ; preds = %32, %12
  %39 = phi i32 [ %13, %12 ], [ %35, %32 ]
  %40 = phi i32 [ %15, %12 ], [ %33, %32 ]
  %41 = sext i32 %39 to i64
  %42 = add nuw nsw i64 %14, 1
  %43 = icmp slt i64 %42, %41
  br i1 %43, label %12, label %44, !llvm.loop !11

44:                                               ; preds = %38, %0
  %45 = phi i32 [ 0, %0 ], [ %40, %38 ]
  %46 = add nsw i32 %45, -1
  %47 = sext i32 %46 to i64
  %48 = getelementptr inbounds [1000 x i32], [1000 x i32]* %3, i64 0, i64 %47
  %49 = load i32, i32* %48, align 4, !tbaa !5
  %50 = getelementptr inbounds [1000 x i32], [1000 x i32]* %3, i64 0, i64 0
  %51 = load i32, i32* %50, align 16, !tbaa !5
  %52 = xor i32 %51, -1
  %53 = add i32 %49, %52
  %54 = getelementptr inbounds [1000 x i32], [1000 x i32]* %4, i64 0, i64 %47
  %55 = load i32, i32* %54, align 4, !tbaa !5
  %56 = getelementptr inbounds [1000 x i32], [1000 x i32]* %4, i64 0, i64 0
  %57 = load i32, i32* %56, align 16, !tbaa !5
  %58 = xor i32 %57, -1
  %59 = add i32 %55, %58
  %60 = mul nsw i32 %59, %53
  %61 = call i32 (i8*, ...) @printf(i8* nonnull dereferenceable(1) getelementptr inbounds ([3 x i8], [3 x i8]* @.str, i64 0, i64 0), i32 %60)
  call void @llvm.lifetime.end.p0i8(i64 4000, i8* nonnull %8) #3
  call void @llvm.lifetime.end.p0i8(i64 4000, i8* nonnull %7) #3
  call void @llvm.lifetime.end.p0i8(i64 4000000, i8* nonnull %6) #3
  call void @llvm.lifetime.end.p0i8(i64 4, i8* nonnull %5) #3
  ret i32 0
}

; Function Attrs: argmemonly mustprogress nofree nosync nounwind willreturn
declare void @llvm.lifetime.start.p0i8(i64 immarg, i8* nocapture) #1

; Function Attrs: nofree nounwind
declare noundef i32 @__isoc99_scanf(i8* nocapture noundef readonly, ...) local_unnamed_addr #2

; Function Attrs: nofree nounwind
declare noundef i32 @printf(i8* nocapture noundef readonly, ...) local_unnamed_addr #2

; Function Attrs: argmemonly mustprogress nofree nosync nounwind willreturn
declare void @llvm.lifetime.end.p0i8(i64 immarg, i8* nocapture) #1


!llvm.module.flags = !{!0, !1, !2, !3}
!llvm.ident = !{!4}

!0 = !{i32 1, !"wchar_size", i32 4}
!1 = !{i32 7, !"PIC Level", i32 2}
!2 = !{i32 7, !"PIE Level", i32 2}
!3 = !{i32 7, !"uwtable", i32 1}
!4 = !{!"clang version 13.0.0"}
!5 = !{!6, !6, i64 0}
!6 = !{!"int", !7, i64 0}
!7 = !{!"omnipotent char", !8, i64 0}
!8 = !{!"Simple C/C++ TBAA"}
!9 = distinct !{!9, !10}
!10 = !{!"llvm.loop.mustprogress"}
!11 = distinct !{!11, !10, !12}
!12 = !{!"llvm.loop.unswitch.partial.disable"}
